target datalayout = "e-m:e-p270:32:32-p271:32:32-p272:64:64-i64:64-i128:128-f80:128-n8:16:32:64-S128"
target triple = "x86_64-pc-linux-gnu"

%struct._DwaCompressor = type { ptr, ptr, i32, i32, [2 x i32], [2 x i32], i32, i32, ptr, ptr, ptr, ptr, i64, ptr, i64, ptr, i64, ptr, i64, [3 x ptr], [3 x i64], ptr, ptr, i32, float }
%struct.exr_chunk_info_t = type { i32, i32, i32, i32, i32, i8, i8, i8, i8, i64, i64, i64, i64, i64 }
%struct.exr_coding_channel_info_t = type { ptr, i32, i32, i32, i32, i8, i8, i16, i16, i16, i32, i32, %union.anon }
%union.anon = type { ptr }
%struct._exr_decode_pipeline = type { i64, ptr, i16, i16, i32, ptr, %struct.exr_chunk_info_t, i32, i32, i64, ptr, ptr, i64, ptr, i64, ptr, i64, ptr, i64, ptr, i64, ptr, i64, ptr, ptr, ptr, ptr, ptr, ptr, [5 x %struct.exr_coding_channel_info_t] }

; Function Attrs: nounwind uwtable
define hidden i32 @internal_exr_undo_dwab(ptr noundef %0, ptr noundef %1, i64 noundef %2, ptr noundef %3, i64 noundef %4) #0 {
  %6 = alloca ptr, align 8
  %7 = alloca ptr, align 8
  %8 = alloca i64, align 8
  %9 = alloca ptr, align 8
  %10 = alloca i64, align 8
  %11 = alloca i32, align 4
  %12 = alloca %struct._DwaCompressor, align 8
  store ptr %0, ptr %6, align 8, !tbaa !19
  store ptr %1, ptr %7, align 8, !tbaa !88
  store i64 %2, ptr %8, align 8, !tbaa !74
  store ptr %3, ptr %9, align 8, !tbaa !88
  store i64 %4, ptr %10, align 8, !tbaa !74
  call void @llvm.lifetime.start.p0(i64 4, ptr %11) #14
  call void @llvm.lifetime.start.p0(i64 208, ptr %12) #14
  %13 = load ptr, ptr %6, align 8, !tbaa !19
  %14 = load ptr, ptr %6, align 8, !tbaa !19
  %15 = getelementptr inbounds nuw %struct._exr_decode_pipeline, ptr %14, i32 0, i32 19
  %16 = load ptr, ptr %6, align 8, !tbaa !19
  %17 = getelementptr inbounds nuw %struct._exr_decode_pipeline, ptr %16, i32 0, i32 20
  %18 = call i64 @internal_exr_huf_decompress_spare_bytes()
  %19 = call i32 @internal_decode_alloc_buffer(ptr noundef %13, i32 noundef 3, ptr noundef %15, ptr noundef %17, i64 noundef %18)
  store i32 %19, ptr %11, align 4, !tbaa !8
  %20 = load i32, ptr %11, align 4, !tbaa !8
  %21 = icmp eq i32 %20, 0
  br i1 %21, label %22, label %34

22:                                               ; preds = %5
  %23 = load ptr, ptr %6, align 8, !tbaa !19
  %24 = call i32 @DwaCompressor_construct(ptr noundef %12, i32 noundef 0, ptr noundef null, ptr noundef %23)
  store i32 %24, ptr %11, align 4, !tbaa !8
  %25 = load i32, ptr %11, align 4, !tbaa !8
  %26 = icmp eq i32 %25, 0
  br i1 %26, label %27, label %33

27:                                               ; preds = %22
  %28 = load ptr, ptr %7, align 8, !tbaa !88
  %29 = load i64, ptr %8, align 8, !tbaa !74
  %30 = load ptr, ptr %9, align 8, !tbaa !88
  %31 = load i64, ptr %10, align 8, !tbaa !74
  %32 = call i32 @DwaCompressor_uncompress(ptr noundef %12, ptr noundef %28, i64 noundef %29, ptr noundef %30, i64 noundef %31)
  store i32 %32, ptr %11, align 4, !tbaa !8
  br label %33

33:                                               ; preds = %27, %22
  call void @DwaCompressor_destroy(ptr noundef %12)
  br label %34

34:                                               ; preds = %33, %5
  %35 = load i64, ptr %10, align 8, !tbaa !74
  %36 = load ptr, ptr %6, align 8, !tbaa !19
  %37 = getelementptr inbounds nuw %struct._exr_decode_pipeline, ptr %36, i32 0, i32 9
  store i64 %35, ptr %37, align 8, !tbaa !129
  %38 = load i32, ptr %11, align 4, !tbaa !8
  call void @llvm.lifetime.end.p0(i64 208, ptr %12) #14
  call void @llvm.lifetime.end.p0(i64 4, ptr %11) #14
  ret i32 %38
}