; Function Attrs: nounwind uwtable
define hidden i32 @internal_exr_undo_dwab(ptr noundef %0, ptr noundef %1, i64 noundef %2, ptr noundef writeonly captures(none) %3, i64 noundef %4) local_unnamed_addr #0 {
  %6 = alloca %struct._DwaCompressor, align 8
  call void @llvm.lifetime.start.p0(i64 208, ptr nonnull %6) #20
  %7 = getelementptr inbounds nuw i8, ptr %0, i64 184
  %8 = getelementptr inbounds nuw i8, ptr %0, i64 192
  %9 = tail call i64 @internal_exr_huf_decompress_spare_bytes() #20
  %10 = tail call i32 @internal_decode_alloc_buffer(ptr noundef %0, i32 noundef 3, ptr noundef nonnull %7, ptr noundef nonnull %8, i64 noundef %9) #20
  %11 = icmp eq i32 %10, 0
  br i1 %11, label %12, label %18

12:                                               ; preds = %5
  %13 = call fastcc i32 @DwaCompressor_construct(ptr noundef %6, i32 noundef 0, ptr noundef null, ptr noundef nonnull %0)
  %14 = icmp eq i32 %13, 0
  br i1 %14, label %15, label %17

15:                                               ; preds = %12
  %16 = call fastcc i32 @DwaCompressor_uncompress(ptr noundef %6, ptr noundef %1, i64 noundef %2, ptr noundef %3, i64 noundef %4)
  br label %17

17:                                               ; preds = %15, %12
  %.1 = phi i32 [ %16, %15 ], [ %13, %12 ]
  call fastcc void @DwaCompressor_destroy(ptr noundef %6)
  br label %18

18:                                               ; preds = %17, %5
  %.0 = phi i32 [ %.1, %17 ], [ %10, %5 ]
  %19 = getelementptr inbounds nuw i8, ptr %0, i64 104
  store i64 %4, ptr %19, align 8, !tbaa !143
  call void @llvm.lifetime.end.p0(i64 208, ptr nonnull %6) #20
  ret i32 %.0
}